; Function Attrs: nounwind uwtable
define hidden void @BrotliClusterHistogramsDistance(ptr noundef %m, ptr noundef %in, i64 noundef %in_size, i64 noundef %max_histograms, ptr noundef captures(none) %out, ptr noundef writeonly captures(none) %out_size, ptr noundef captures(none) %histogram_symbols) local_unnamed_addr #0 {
entry:
  %cmp.not = icmp eq i64 %in_size, 0
  br i1 %cmp.not, label %cond.true9, label %cond.true2

cond.true2:                                       ; preds = %entry
  %mul = shl i64 %in_size, 2
  %call = tail call ptr @BrotliAllocate(ptr noundef %m, i64 noundef %mul) #7
  %call4 = tail call ptr @BrotliAllocate(ptr noundef %m, i64 noundef %mul) #7
  br label %cond.true9

cond.true9:                                       ; preds = %entry, %cond.true2
  %cond95 = phi ptr [ %call, %cond.true2 ], [ null, %entry ]
  %cond7 = phi ptr [ %call4, %cond.true2 ], [ null, %entry ]
  %call12 = tail call ptr @BrotliAllocate(ptr noundef %m, i64 noundef 49176) #7
  %call16 = tail call ptr @BrotliAllocate(ptr noundef %m, i64 noundef 2192) #7
  br i1 %cmp.not, label %for.end52, label %for.body

for.body:                                         ; preds = %cond.true9, %for.body
  %i.097 = phi i64 [ %inc, %for.body ], [ 0, %cond.true9 ]
  %arrayidx = getelementptr inbounds i32, ptr %cond95, i64 %i.097
  store i32 1, ptr %arrayidx, align 4
  %inc = add nuw i64 %i.097, 1
  %exitcond.not = icmp eq i64 %inc, %in_size
  br i1 %exitcond.not, label %for.body20, label %for.body, !llvm.loop !64

for.body20:                                       ; preds = %for.body, %for.body20
  %i.199 = phi i64 [ %inc28, %for.body20 ], [ 0, %for.body ]
  %arrayidx21 = getelementptr inbounds %struct.HistogramDistance, ptr %out, i64 %i.199
  %arrayidx22 = getelementptr inbounds %struct.HistogramDistance, ptr %in, i64 %i.199
  tail call void @llvm.memcpy.p0.p0.i64(ptr noundef nonnull align 8 dereferenceable(2192) %arrayidx21, ptr noundef nonnull align 8 dereferenceable(2192) %arrayidx22, i64 2192, i1 false)
  %call24 = tail call double @BrotliPopulationCostDistance(ptr noundef nonnull %arrayidx22) #7
  %bit_cost_ = getelementptr inbounds nuw i8, ptr %arrayidx21, i64 2184
  store double %call24, ptr %bit_cost_, align 8
  %conv = trunc i64 %i.199 to i32
  %arrayidx26 = getelementptr inbounds i32, ptr %histogram_symbols, i64 %i.199
  store i32 %conv, ptr %arrayidx26, align 4
  %inc28 = add nuw i64 %i.199, 1
  %exitcond105.not = icmp eq i64 %inc28, %in_size
  br i1 %exitcond105.not, label %for.body38.lr.ph, label %for.body20, !llvm.loop !65

for.body38.lr.ph:                                 ; preds = %for.body20, %for.end45
  %indvars.iv = phi i64 [ %indvars.iv.next, %for.end45 ], [ %in_size, %for.body20 ]
  %num_clusters.0104 = phi i64 [ %add49, %for.end45 ], [ 0, %for.body20 ]
  %i.2103 = phi i64 [ %add51, %for.end45 ], [ 0, %for.body20 ]
  %umin = tail call i64 @llvm.umin.i64(i64 %indvars.iv, i64 64)
  %umax = tail call i64 @llvm.umax.i64(i64 %umin, i64 1)
  %sub = sub nuw i64 %in_size, %i.2103
  %cond.i89 = tail call i64 @llvm.umin.i64(i64 %sub, i64 64)
  %0 = getelementptr i32, ptr %cond7, i64 %num_clusters.0104
  br label %for.body38

for.body38:                                       ; preds = %for.body38.lr.ph, %for.body38
  %j.0101 = phi i64 [ 0, %for.body38.lr.ph ], [ %inc44, %for.body38 ]
  %add39 = add nuw nsw i64 %j.0101, %i.2103
  %conv40 = trunc i64 %add39 to i32
  %arrayidx42 = getelementptr i32, ptr %0, i64 %j.0101
  store i32 %conv40, ptr %arrayidx42, align 4
  %inc44 = add nuw nsw i64 %j.0101, 1
  %exitcond106.not = icmp eq i64 %inc44, %umax
  br i1 %exitcond106.not, label %for.end45, label %for.body38, !llvm.loop !66

for.end45:                                        ; preds = %for.body38
  %arrayidx46 = getelementptr inbounds i32, ptr %histogram_symbols, i64 %i.2103
  %arrayidx47 = getelementptr inbounds i32, ptr %cond7, i64 %num_clusters.0104
  %call48 = tail call i64 @BrotliHistogramCombineDistance(ptr noundef %out, ptr noundef %call16, ptr noundef %cond95, ptr noundef %arrayidx46, ptr noundef %arrayidx47, ptr noundef %call12, i64 noundef %cond.i89, i64 noundef %cond.i89, i64 noundef %max_histograms, i64 noundef 2048)
  %add49 = add i64 %call48, %num_clusters.0104
  %add51 = add i64 %i.2103, 64
  %cmp31 = icmp ult i64 %add51, %in_size
  %indvars.iv.next = add i64 %indvars.iv, -64
  br i1 %cmp31, label %for.body38.lr.ph, label %for.end52, !llvm.loop !67

for.end52:                                        ; preds = %for.end45, %cond.true9
  %num_clusters.0.lcssa = phi i64 [ 0, %cond.true9 ], [ %add49, %for.end45 ]
  %mul53 = shl i64 %num_clusters.0.lcssa, 6
  %div93 = lshr i64 %num_clusters.0.lcssa, 1
  %mul54 = mul i64 %div93, %num_clusters.0.lcssa
  %cond.i = tail call i64 @llvm.umin.i64(i64 %mul53, i64 %mul54)
  %cmp57 = icmp ugt i64 %cond.i, 2047
  br i1 %cmp57, label %while.cond, label %if.end82

while.cond:                                       ; preds = %for.end52, %while.cond
  %_new_size.0 = phi i64 [ %mul69, %while.cond ], [ 2048, %for.end52 ]
  %cmp67.not = icmp ugt i64 %_new_size.0, %cond.i
  %mul69 = shl i64 %_new_size.0, 1
  br i1 %cmp67.not, label %cond.true72, label %while.cond, !llvm.loop !68

cond.true72:                                      ; preds = %while.cond
  %mul73 = mul i64 %_new_size.0, 24
  %call74 = tail call ptr @BrotliAllocate(ptr noundef %m, i64 noundef %mul73) #7
  tail call void @llvm.memcpy.p0.p0.i64(ptr noundef nonnull align 8 dereferenceable(49152) %call74, ptr noundef nonnull align 8 dereferenceable(49152) %call12, i64 49152, i1 false)
  tail call void @BrotliFree(ptr noundef %m, ptr noundef nonnull %call12) #7
  br label %if.end82

if.end82:                                         ; preds = %cond.true72, %for.end52
  %pairs.0 = phi ptr [ %call74, %cond.true72 ], [ %call12, %for.end52 ]
  %call83 = tail call i64 @BrotliHistogramCombineDistance(ptr noundef %out, ptr noundef %call16, ptr noundef %cond95, ptr noundef %histogram_symbols, ptr noundef %cond7, ptr noundef %pairs.0, i64 noundef %num_clusters.0.lcssa, i64 noundef %in_size, i64 noundef %max_histograms, i64 noundef %cond.i)
  tail call void @BrotliFree(ptr noundef %m, ptr noundef %pairs.0) #7
  tail call void @BrotliFree(ptr noundef %m, ptr noundef %cond95) #7
  tail call void @BrotliHistogramRemapDistance(ptr noundef %in, i64 noundef %in_size, ptr noundef %cond7, i64 noundef %call83, ptr noundef %out, ptr noundef %call16, ptr noundef %histogram_symbols)
  tail call void @BrotliFree(ptr noundef %m, ptr noundef %call16) #7
  tail call void @BrotliFree(ptr noundef %m, ptr noundef %cond7) #7
  %call84 = tail call i64 @BrotliHistogramReindexDistance(ptr noundef %m, ptr noundef %out, ptr noundef %histogram_symbols, i64 noundef %in_size)
  store i64 %call84, ptr %out_size, align 8
  ret void
}